; Function Attrs: nounwind uwtable
define dso_local noundef i64 @pg_wal_summary_contents(ptr noundef %0) local_unnamed_addr #0 {
  %2 = alloca [6 x i64], align 16
  %3 = alloca [6 x i8], align 1
  %4 = alloca %struct.WalSummaryFile, align 8
  %5 = alloca %struct.WalSummaryIO, align 8
  %6 = alloca %struct.RelFileLocator, align 4
  %7 = alloca i32, align 4
  %8 = alloca i32, align 4
  %9 = alloca [256 x i32], align 16
  call void @llvm.lifetime.start.p0(i64 48, ptr nonnull %2) #6
  call void @llvm.lifetime.start.p0(i64 6, ptr nonnull %3) #6
  call void @llvm.lifetime.start.p0(i64 24, ptr nonnull %4) #6
  call void @llvm.lifetime.start.p0(i64 16, ptr nonnull %5) #6
  call void @llvm.lifetime.start.p0(i64 12, ptr nonnull %6) #6
  call void @llvm.lifetime.start.p0(i64 4, ptr nonnull %7) #6
  call void @llvm.lifetime.start.p0(i64 4, ptr nonnull %8) #6
  tail call void @InitMaterializedSRF(ptr noundef %0, i32 noundef 0) #6
  %10 = getelementptr inbounds nuw i8, ptr %0, i64 16
  %11 = load ptr, ptr %10, align 8
  call void @llvm.memset.p0.i64(ptr noundef nonnull align 1 dereferenceable(6) %3, i8 0, i64 6, i1 false)
  %12 = getelementptr inbounds nuw i8, ptr %0, i64 32
  %13 = load i64, ptr %12, align 8
  %14 = add i64 %13, -2147483648
  %or.cond = icmp ult i64 %14, -2147483647
  br i1 %or.cond, label %15, label %19

15:                                               ; preds = %1
  %16 = tail call zeroext i1 @errstart_cold(i32 noundef 21, ptr noundef null) #7
  tail call void @llvm.assume(i1 %16)
  %17 = tail call i32 @errcode(i32 noundef 50856066) #6
  %18 = tail call i32 (ptr, ...) @errmsg(ptr noundef nonnull @.str, i64 noundef %13) #6
  tail call void @errfinish(ptr noundef nonnull @.str.1, i32 noundef 95, ptr noundef nonnull @__func__.pg_wal_summary_contents) #6
  unreachable

19:                                               ; preds = %1
  %20 = trunc nuw nsw i64 %13 to i32
  %21 = getelementptr inbounds nuw i8, ptr %4, i64 16
  store i32 %20, ptr %21, align 8
  %22 = getelementptr inbounds nuw i8, ptr %0, i64 48
  %23 = load i64, ptr %22, align 8
  store i64 %23, ptr %4, align 8
  %24 = getelementptr inbounds nuw i8, ptr %0, i64 64
  %25 = load i64, ptr %24, align 8
  %26 = getelementptr inbounds nuw i8, ptr %4, i64 8
  store i64 %25, ptr %26, align 8
  %27 = getelementptr inbounds nuw i8, ptr %5, i64 8
  store i64 0, ptr %27, align 8
  %28 = call i32 @OpenWalSummaryFile(ptr noundef nonnull %4, i1 noundef zeroext false) #6
  store i32 %28, ptr %5, align 8
  %29 = call ptr @FilePathName(i32 noundef %28) #6
  %30 = call ptr @CreateBlockRefTableReader(ptr noundef nonnull @ReadWalSummary, ptr noundef nonnull %5, ptr noundef %29, ptr noundef nonnull @ReportWalSummaryError, ptr noundef null) #6
  %31 = call zeroext i1 @BlockRefTableReaderNextRelation(ptr noundef %30, ptr noundef nonnull %6, ptr noundef nonnull %7, ptr noundef nonnull %8) #6
  br i1 %31, label %.lr.ph, label %._crit_edge

.lr.ph:                                           ; preds = %19
  %32 = getelementptr inbounds nuw i8, ptr %6, i64 8
  %33 = getelementptr inbounds nuw i8, ptr %2, i64 8
  %34 = getelementptr inbounds nuw i8, ptr %6, i64 4
  %35 = getelementptr inbounds nuw i8, ptr %2, i64 16
  %36 = getelementptr inbounds nuw i8, ptr %2, i64 24
  %37 = getelementptr inbounds nuw i8, ptr %2, i64 32
  %38 = getelementptr inbounds nuw i8, ptr %2, i64 40
  %39 = getelementptr inbounds nuw i8, ptr %11, i64 48
  %40 = getelementptr inbounds nuw i8, ptr %11, i64 40
  br label %41

41:                                               ; preds = %.lr.ph, %73
  call void @llvm.lifetime.start.p0(i64 1024, ptr nonnull %9) #6
  %42 = load volatile i32, ptr @InterruptPending, align 4
  %.not = icmp eq i32 %42, 0
  br i1 %.not, label %44, label %43, !prof !4

43:                                               ; preds = %41
  call void @ProcessInterrupts() #6
  br label %44

44:                                               ; preds = %43, %41
  %45 = load i32, ptr %32, align 4
  %46 = zext i32 %45 to i64
  store i64 %46, ptr %2, align 16
  %47 = load i32, ptr %6, align 4
  %48 = zext i32 %47 to i64
  store i64 %48, ptr %33, align 8
  %49 = load i32, ptr %34, align 4
  %50 = zext i32 %49 to i64
  store i64 %50, ptr %35, align 16
  %51 = load i32, ptr %7, align 4
  %52 = zext i32 %51 to i64
  %sext = shl i64 %52, 48
  %53 = ashr exact i64 %sext, 48
  store i64 %53, ptr %36, align 8
  %54 = load i32, ptr %8, align 4
  %.not30 = icmp eq i32 %54, -1
  br i1 %.not30, label %.loopexit.preheader, label %55

55:                                               ; preds = %44
  %56 = zext i32 %54 to i64
  store i64 %56, ptr %37, align 16
  store i64 1, ptr %38, align 8
  %57 = load ptr, ptr %39, align 8
  %58 = call ptr @heap_form_tuple(ptr noundef %57, ptr noundef nonnull %2, ptr noundef nonnull %3) #6
  %59 = load ptr, ptr %40, align 8
  call void @tuplestore_puttuple(ptr noundef %59, ptr noundef %58) #6
  br label %.loopexit.preheader

.loopexit.preheader:                              ; preds = %55, %44
  br label %.loopexit

.loopexit.loopexit:                               ; preds = %66
  br label %.loopexit, !llvm.loop !5

.loopexit:                                        ; preds = %.loopexit.preheader, %.loopexit.loopexit
  %60 = load volatile i32, ptr @InterruptPending, align 4
  %.not27 = icmp eq i32 %60, 0
  br i1 %.not27, label %62, label %61, !prof !4

61:                                               ; preds = %.loopexit
  call void @ProcessInterrupts() #6
  br label %62

62:                                               ; preds = %61, %.loopexit
  %63 = call i32 @BlockRefTableReaderGetBlocks(ptr noundef %30, ptr noundef nonnull %9, i32 noundef 256) #6
  %64 = icmp eq i32 %63, 0
  br i1 %64, label %73, label %65

65:                                               ; preds = %62
  store i64 0, ptr %38, align 8
  %wide.trip.count = zext i32 %63 to i64
  br label %66

66:                                               ; preds = %65, %66
  %indvars.iv = phi i64 [ 0, %65 ], [ %indvars.iv.next, %66 ]
  %67 = getelementptr inbounds nuw [256 x i32], ptr %9, i64 0, i64 %indvars.iv
  %68 = load i32, ptr %67, align 4
  %69 = zext i32 %68 to i64
  store i64 %69, ptr %37, align 16
  %70 = load ptr, ptr %39, align 8
  %71 = call ptr @heap_form_tuple(ptr noundef %70, ptr noundef nonnull %2, ptr noundef nonnull %3) #6
  %72 = load ptr, ptr %40, align 8
  call void @tuplestore_puttuple(ptr noundef %72, ptr noundef %71) #6
  %indvars.iv.next = add nuw nsw i64 %indvars.iv, 1
  %exitcond.not = icmp eq i64 %indvars.iv.next, %wide.trip.count
  br i1 %exitcond.not, label %.loopexit.loopexit, label %66, !llvm.loop !5

73:                                               ; preds = %62
  call void @llvm.lifetime.end.p0(i64 1024, ptr nonnull %9) #6
  %74 = call zeroext i1 @BlockRefTableReaderNextRelation(ptr noundef %30, ptr noundef nonnull %6, ptr noundef nonnull %7, ptr noundef nonnull %8) #6
  br i1 %74, label %41, label %._crit_edge, !llvm.loop !7

._crit_edge:                                      ; preds = %73, %19
  call void @DestroyBlockRefTableReader(ptr noundef %30) #6
  %75 = load i32, ptr %5, align 8
  call void @FileClose(i32 noundef %75) #6
  call void @llvm.lifetime.end.p0(i64 4, ptr nonnull %8) #6
  call void @llvm.lifetime.end.p0(i64 4, ptr nonnull %7) #6
  call void @llvm.lifetime.end.p0(i64 12, ptr nonnull %6) #6
  call void @llvm.lifetime.end.p0(i64 16, ptr nonnull %5) #6
  call void @llvm.lifetime.end.p0(i64 24, ptr nonnull %4) #6
  call void @llvm.lifetime.end.p0(i64 6, ptr nonnull %3) #6
  call void @llvm.lifetime.end.p0(i64 48, ptr nonnull %2) #6
  ret i64 0
}